; Function Attrs: mustprogress nounwind uwtable
define internal void @"_ZNSt17_Function_handlerIFvRN4llvm11raw_ostreamEEZNS0_28printJumpTableEntryReferenceEjE3$_0E9_M_invokeERKSt9_Any_dataS2_"(ptr noundef nonnull readonly align 8 captures(none) dereferenceable(16) %0, ptr noundef nonnull align 8 dereferenceable(48) %1) #0 align 2 {
  %3 = getelementptr inbounds nuw i8, ptr %1, i64 24
  %4 = load ptr, ptr %3, align 8
  %5 = getelementptr inbounds nuw i8, ptr %1, i64 32
  %6 = load ptr, ptr %5, align 8
  %7 = ptrtoint ptr %4 to i64
  %8 = ptrtoint ptr %6 to i64
  %9 = sub i64 %7, %8
  %10 = icmp ult i64 %9, 12
  br i1 %10, label %11, label %13

11:                                               ; preds = %2
  %12 = tail call noundef nonnull align 8 dereferenceable(48) ptr @_ZN4llvm11raw_ostream5writeEPKcm(ptr noundef nonnull align 8 dereferenceable(48) %1, ptr noundef nonnull @.str.48, i64 noundef 12) #25
  br label %"_ZSt10__invoke_rIvRZN4llvm28printJumpTableEntryReferenceEjE3$_0JRNS0_11raw_ostreamEEENSt9enable_ifIX16is_invocable_r_vIT_T0_DpT1_EES6_E4typeEOS7_DpOS8_.exit"

13:                                               ; preds = %2
  tail call void @llvm.memcpy.p0.p0.i64(ptr noundef nonnull align 1 dereferenceable(12) %6, ptr noundef nonnull align 1 dereferenceable(12) @.str.48, i64 12, i1 false)
  %14 = load ptr, ptr %5, align 8
  %15 = getelementptr inbounds nuw i8, ptr %14, i64 12
  store ptr %15, ptr %5, align 8
  br label %"_ZSt10__invoke_rIvRZN4llvm28printJumpTableEntryReferenceEjE3$_0JRNS0_11raw_ostreamEEENSt9enable_ifIX16is_invocable_r_vIT_T0_DpT1_EES6_E4typeEOS7_DpOS8_.exit"

"_ZSt10__invoke_rIvRZN4llvm28printJumpTableEntryReferenceEjE3$_0JRNS0_11raw_ostreamEEENSt9enable_ifIX16is_invocable_r_vIT_T0_DpT1_EES6_E4typeEOS7_DpOS8_.exit": ; preds = %11, %13
  %.0.i.i.i.i.i = phi ptr [ %12, %11 ], [ %1, %13 ]
  %16 = load i32, ptr %0, align 8
  %17 = zext i32 %16 to i64
  %18 = tail call noundef nonnull align 8 dereferenceable(48) ptr @_ZN4llvm11raw_ostreamlsEm(ptr noundef nonnull align 8 dereferenceable(48) %.0.i.i.i.i.i, i64 noundef %17) #25
  ret void
}